target datalayout = "e-m:e-p270:32:32-p271:32:32-p272:64:64-i64:64-i128:128-f80:128-n8:16:32:64-S128"
target triple = "x86_64-pc-linux-gnu"

%struct.expert_field = type { i32, i32 }

@hf_nfapi_rnti = internal global i32 0, align 4
@hf_nfapi_handle = internal global i32 0, align 4
@ei_invalid_range = internal global %struct.expert_field zeroinitializer, align 4
@.str.2006 = private unnamed_addr constant [30 x i8] c"Invalid rnti value [1..65535]\00", align 1

; Function Attrs: nounwind uwtable
define internal void @dissect_ul_config_ue_info_rel8_value(ptr noundef %0, ptr noundef %1) #0 {
  %3 = alloca ptr, align 8
  %4 = alloca ptr, align 8
  %5 = alloca ptr, align 8
  %6 = alloca i32, align 4
  store ptr %0, ptr %3, align 8
  store ptr %1, ptr %4, align 8
  %7 = load ptr, ptr %3, align 8
  %8 = load i32, ptr @hf_nfapi_handle, align 4
  %9 = call ptr @ptvcursor_add(ptr noundef %7, i32 noundef %8, i32 noundef 4, i32 noundef 0)
  %10 = load ptr, ptr %3, align 8
  %11 = load i32, ptr @hf_nfapi_rnti, align 4
  %12 = call ptr @ptvcursor_add_ret_uint(ptr noundef %10, i32 noundef %11, i32 noundef 2, i32 noundef 0, ptr noundef %6)
  store ptr %12, ptr %5, align 8
  %13 = load i32, ptr %6, align 4
  %14 = icmp ult i32 %13, 1
  br i1 %14, label %15, label %19

15:                                               ; preds = %2
  %16 = load ptr, ptr %4, align 8
  %17 = load ptr, ptr %5, align 8
  %18 = call ptr (ptr, ptr, ptr, ptr, ...) @expert_add_info_format(ptr noundef %16, ptr noundef %17, ptr noundef @ei_invalid_range, ptr noundef @.str.2006)
  br label %19

19:                                               ; preds = %15, %2
  ret void
}